target datalayout = "e-m:e-p270:32:32-p271:32:32-p272:64:64-i64:64-i128:128-f80:128-n8:16:32:64-S128"
target triple = "x86_64-pc-linux-gnu"

%struct.tvb_ops = type { i64, ptr, ptr, ptr, ptr, ptr, ptr, ptr }
%struct.tvb_composite = type { %struct.tvbuff, %struct.tvb_comp_t }
%struct.tvbuff = type { ptr, ptr, i8, i32, ptr, ptr, i32, i32, i32, i32 }
%struct.tvb_comp_t = type { ptr, ptr, ptr, i32 }

@tvb_composite_ops = internal constant %struct.tvb_ops { i64 88, ptr @composite_free, ptr @composite_offset, ptr @composite_get_ptr, ptr @composite_memcpy, ptr null, ptr null, ptr null }, align 8
@.str = private unnamed_addr constant [29 x i8] c"%s:%u: failed assertion \22%s\22\00", align 1
@.str.1 = private unnamed_addr constant [24 x i8] c"epan/tvbuff_composite.c\00", align 1
@.str.2 = private unnamed_addr constant [25 x i8] c"tvb && !tvb->initialized\00", align 1
@.str.3 = private unnamed_addr constant [31 x i8] c"tvb->ops == &tvb_composite_ops\00", align 1

; Function Attrs: null_pointer_is_valid sspstrong uwtable
define hidden void @tvb_composite_prepend(ptr noundef %0, ptr noundef %1) #0 {
  %3 = alloca ptr, align 8
  %4 = alloca ptr, align 8
  %5 = alloca ptr, align 8
  %6 = alloca ptr, align 8
  store ptr %0, ptr %3, align 8
  store ptr %1, ptr %4, align 8
  call void @llvm.lifetime.start.p0(i64 8, ptr %5) #8
  %7 = load ptr, ptr %3, align 8
  store ptr %7, ptr %5, align 8
  call void @llvm.lifetime.start.p0(i64 8, ptr %6) #8
  %8 = load ptr, ptr %3, align 8
  %9 = icmp ne ptr %8, null
  br i1 %9, label %10, label %16

10:                                               ; preds = %2
  %11 = load ptr, ptr %3, align 8
  %12 = getelementptr inbounds nuw %struct.tvbuff, ptr %11, i32 0, i32 2
  %13 = load i8, ptr %12, align 8, !range !6, !noundef !7
  %14 = trunc i8 %13 to i1
  br i1 %14, label %16, label %15

15:                                               ; preds = %10
  br label %18

16:                                               ; preds = %10, %2
  call void (ptr, ...) @proto_report_dissector_bug(ptr noundef @.str, ptr noundef @.str.1, i32 noundef 244, ptr noundef @.str.2) #9
  unreachable

17:                                               ; No predecessors!
  br label %18

18:                                               ; preds = %17, %15
  %19 = load ptr, ptr %3, align 8
  %20 = getelementptr inbounds nuw %struct.tvbuff, ptr %19, i32 0, i32 1
  %21 = load ptr, ptr %20, align 8
  %22 = icmp eq ptr %21, @tvb_composite_ops
  br i1 %22, label %23, label %24

23:                                               ; preds = %18
  br label %26

24:                                               ; preds = %18
  call void (ptr, ...) @proto_report_dissector_bug(ptr noundef @.str, ptr noundef @.str.1, i32 noundef 245, ptr noundef @.str.3) #9
  unreachable

25:                                               ; No predecessors!
  br label %26

26:                                               ; preds = %25, %23
  %27 = load ptr, ptr %4, align 8
  %28 = icmp ne ptr %27, null
  br i1 %28, label %29, label %53

29:                                               ; preds = %26
  %30 = load ptr, ptr %4, align 8
  %31 = getelementptr inbounds nuw %struct.tvbuff, ptr %30, i32 0, i32 6
  %32 = load i32, ptr %31, align 8
  %33 = icmp ne i32 %32, 0
  br i1 %33, label %34, label %53

34:                                               ; preds = %29
  %35 = load ptr, ptr %5, align 8
  %36 = getelementptr inbounds nuw %struct.tvb_composite, ptr %35, i32 0, i32 1
  store ptr %36, ptr %6, align 8
  %37 = load ptr, ptr %6, align 8
  %38 = getelementptr inbounds nuw %struct.tvb_comp_t, ptr %37, i32 0, i32 0
  %39 = load ptr, ptr %38, align 8
  %40 = load ptr, ptr %4, align 8
  call void @g_queue_push_head(ptr noundef %39, ptr noundef %40)
  %41 = load ptr, ptr %6, align 8
  %42 = getelementptr inbounds nuw %struct.tvb_comp_t, ptr %41, i32 0, i32 0
  %43 = load ptr, ptr %42, align 8
  %44 = call i32 @g_queue_get_length(ptr noundef %43)
  %45 = icmp eq i32 %44, 1
  br i1 %45, label %46, label %52

46:                                               ; preds = %34
  %47 = load ptr, ptr %6, align 8
  %48 = getelementptr inbounds nuw %struct.tvb_comp_t, ptr %47, i32 0, i32 0
  %49 = load ptr, ptr %48, align 8
  %50 = call ptr @g_queue_peek_head(ptr noundef %49)
  %51 = load ptr, ptr %3, align 8
  call void @tvb_add_to_chain(ptr noundef %50, ptr noundef %51)
  br label %52

52:                                               ; preds = %46, %34
  br label %53

53:                                               ; preds = %52, %29, %26
  call void @llvm.lifetime.end.p0(i64 8, ptr %6) #8
  call void @llvm.lifetime.end.p0(i64 8, ptr %5) #8
  ret void
}